target datalayout = "e-m:e-p270:32:32-p271:32:32-p272:64:64-i64:64-i128:128-f80:128-n8:16:32:64-S128"
target triple = "x86_64-pc-linux-gnu"

%struct.dt_lib_module_t = type { %struct.dt_action_t, ptr, ptr, ptr, ptr, ptr, ptr, ptr, ptr, ptr, ptr, ptr, ptr, ptr, ptr, ptr, ptr, ptr, ptr, ptr, ptr, ptr, ptr, ptr, ptr, ptr, ptr, ptr, ptr, ptr, ptr, [128 x i8], ptr, ptr, i32, ptr, ptr, ptr, i32 }
%struct.dt_action_t = type { i32, ptr, ptr, ptr, ptr, ptr }
%struct.dt_lib_tagging_t = type { [1024 x i8], ptr, ptr, ptr, ptr, ptr, ptr, ptr, ptr, ptr, ptr, ptr, ptr, ptr, ptr, ptr, ptr, ptr, ptr, ptr, ptr, ptr, i32, i32, i32, i32, i32, ptr, ptr, %struct.anon, i32 }
%struct.anon = type { ptr, ptr, ptr, i32, i32, i32, i32, i32 }
%struct._GtkTreeIter = type { i32, ptr, ptr, ptr }
%struct._cairo_rectangle_int = type { i32, i32, i32, i32 }

@.str.5 = private unnamed_addr constant [1 x i8] zeroinitializer, align 1
@.str.141 = private unnamed_addr constant [13 x i8] c"drop to root\00", align 1

; Function Attrs: nounwind uwtable
define internal i32 @_dnd_scroll_timeout(ptr noundef %0) #0 {
  %2 = alloca i32, align 4
  %3 = alloca ptr, align 8
  %4 = alloca ptr, align 8
  %5 = alloca %struct._cairo_rectangle_int, align 4
  %6 = alloca i32, align 4
  %7 = alloca %struct._GtkTreeIter, align 8
  %8 = alloca i32, align 4
  store ptr %0, ptr %3, align 8, !tbaa !6
  call void @llvm.lifetime.start.p0(i64 8, ptr %4) #11
  %9 = load ptr, ptr %3, align 8, !tbaa !6
  %10 = getelementptr inbounds nuw %struct.dt_lib_module_t, ptr %9, i32 0, i32 30
  %11 = load ptr, ptr %10, align 8, !tbaa !11
  store ptr %11, ptr %4, align 8, !tbaa !19
  %12 = load ptr, ptr %4, align 8, !tbaa !19
  %13 = getelementptr inbounds nuw %struct.dt_lib_tagging_t, ptr %12, i32 0, i32 29
  %14 = getelementptr inbounds nuw %struct.anon, ptr %13, i32 0, i32 4
  %15 = load i32, ptr %14, align 4, !tbaa !125
  %16 = icmp ne i32 %15, 0
  br i1 %16, label %17, label %106

17:                                               ; preds = %1
  call void @llvm.lifetime.start.p0(i64 16, ptr %5) #11
  %18 = load ptr, ptr %4, align 8, !tbaa !19
  %19 = getelementptr inbounds nuw %struct.dt_lib_tagging_t, ptr %18, i32 0, i32 4
  %20 = load ptr, ptr %19, align 8, !tbaa !40
  call void @gtk_tree_view_get_visible_rect(ptr noundef %20, ptr noundef %5)
  call void @llvm.lifetime.start.p0(i64 4, ptr %6) #11
  %21 = load ptr, ptr %4, align 8, !tbaa !19
  %22 = getelementptr inbounds nuw %struct.dt_lib_tagging_t, ptr %21, i32 0, i32 4
  %23 = load ptr, ptr %22, align 8, !tbaa !40
  call void @gtk_tree_view_convert_bin_window_to_tree_coords(ptr noundef %23, i32 noundef 0, i32 noundef 0, ptr noundef null, ptr noundef %6)
  %24 = load ptr, ptr %4, align 8, !tbaa !19
  %25 = getelementptr inbounds nuw %struct.dt_lib_tagging_t, ptr %24, i32 0, i32 29
  %26 = getelementptr inbounds nuw %struct.anon, ptr %25, i32 0, i32 7
  %27 = load i32, ptr %26, align 8, !tbaa !128
  %28 = icmp ne i32 %27, 0
  br i1 %28, label %29, label %55

29:                                               ; preds = %17
  %30 = load ptr, ptr %4, align 8, !tbaa !19
  %31 = getelementptr inbounds nuw %struct.dt_lib_tagging_t, ptr %30, i32 0, i32 29
  %32 = getelementptr inbounds nuw %struct.anon, ptr %31, i32 0, i32 6
  %33 = load i32, ptr %32, align 4, !tbaa !127
  %34 = icmp ne i32 %33, 0
  br i1 %34, label %55, label %35

35:                                               ; preds = %29
  %36 = load ptr, ptr %4, align 8, !tbaa !19
  %37 = getelementptr inbounds nuw %struct.dt_lib_tagging_t, ptr %36, i32 0, i32 29
  %38 = getelementptr inbounds nuw %struct.anon, ptr %37, i32 0, i32 5
  %39 = load i32, ptr %38, align 8, !tbaa !175
  %40 = icmp slt i32 %39, 5
  br i1 %40, label %41, label %55

41:                                               ; preds = %35
  %42 = load i32, ptr %6, align 4, !tbaa !31
  %43 = icmp slt i32 %42, 1
  br i1 %43, label %44, label %55

44:                                               ; preds = %41
  call void @llvm.lifetime.start.p0(i64 32, ptr %7) #11
  %45 = load ptr, ptr %4, align 8, !tbaa !19
  %46 = getelementptr inbounds nuw %struct.dt_lib_tagging_t, ptr %45, i32 0, i32 17
  %47 = load ptr, ptr %46, align 8, !tbaa !41
  call void @gtk_tree_store_prepend(ptr noundef %47, ptr noundef %7, ptr noundef null)
  %48 = load ptr, ptr %4, align 8, !tbaa !19
  %49 = getelementptr inbounds nuw %struct.dt_lib_tagging_t, ptr %48, i32 0, i32 17
  %50 = load ptr, ptr %49, align 8, !tbaa !41
  %51 = call ptr @dcgettext(ptr noundef null, ptr noundef @.str.141, i32 noundef 5) #11
  call void (ptr, ptr, ...) @gtk_tree_store_set(ptr noundef %50, ptr noundef %7, i32 noundef 0, ptr noundef %51, i32 noundef 1, i32 noundef 0, i32 noundef 2, ptr noundef @.str.5, i32 noundef 4, i32 noundef 0, i32 noundef 5, i32 noundef 0, i32 noundef 6, i32 noundef 0, i32 noundef 7, i32 noundef 1, i32 noundef -1)
  %52 = load ptr, ptr %4, align 8, !tbaa !19
  %53 = getelementptr inbounds nuw %struct.dt_lib_tagging_t, ptr %52, i32 0, i32 29
  %54 = getelementptr inbounds nuw %struct.anon, ptr %53, i32 0, i32 6
  store i32 1, ptr %54, align 4, !tbaa !127
  call void @llvm.lifetime.end.p0(i64 32, ptr %7) #11
  br label %70

55:                                               ; preds = %41, %35, %29, %17
  %56 = load ptr, ptr %4, align 8, !tbaa !19
  %57 = getelementptr inbounds nuw %struct.dt_lib_tagging_t, ptr %56, i32 0, i32 29
  %58 = getelementptr inbounds nuw %struct.anon, ptr %57, i32 0, i32 6
  %59 = load i32, ptr %58, align 4, !tbaa !127
  %60 = icmp ne i32 %59, 0
  br i1 %60, label %61, label %69

61:                                               ; preds = %55
  %62 = load ptr, ptr %4, align 8, !tbaa !19
  %63 = getelementptr inbounds nuw %struct.dt_lib_tagging_t, ptr %62, i32 0, i32 29
  %64 = getelementptr inbounds nuw %struct.anon, ptr %63, i32 0, i32 5
  %65 = load i32, ptr %64, align 8, !tbaa !175
  %66 = icmp sge i32 %65, 20
  br i1 %66, label %67, label %69

67:                                               ; preds = %61
  %68 = load ptr, ptr %3, align 8, !tbaa !6
  call void @_dnd_clear_root(ptr noundef %68)
  br label %69

69:                                               ; preds = %67, %61, %55
  br label %70

70:                                               ; preds = %69, %44
  %71 = load ptr, ptr %4, align 8, !tbaa !19
  %72 = getelementptr inbounds nuw %struct.dt_lib_tagging_t, ptr %71, i32 0, i32 29
  %73 = getelementptr inbounds nuw %struct.anon, ptr %72, i32 0, i32 5
  %74 = load i32, ptr %73, align 8, !tbaa !175
  %75 = icmp slt i32 %74, 5
  br i1 %75, label %76, label %89

76:                                               ; preds = %70
  %77 = load ptr, ptr %4, align 8, !tbaa !19
  %78 = getelementptr inbounds nuw %struct.dt_lib_tagging_t, ptr %77, i32 0, i32 4
  %79 = load ptr, ptr %78, align 8, !tbaa !40
  %80 = load i32, ptr %6, align 4, !tbaa !31
  %81 = sub nsw i32 %80, 25
  %82 = icmp slt i32 %81, 0
  br i1 %82, label %83, label %84

83:                                               ; preds = %76
  br label %87

84:                                               ; preds = %76
  %85 = load i32, ptr %6, align 4, !tbaa !31
  %86 = sub nsw i32 %85, 25
  br label %87

87:                                               ; preds = %84, %83
  %88 = phi i32 [ 0, %83 ], [ %86, %84 ]
  call void @gtk_tree_view_scroll_to_point(ptr noundef %79, i32 noundef 0, i32 noundef %88)
  br label %105

89:                                               ; preds = %70
  %90 = load ptr, ptr %4, align 8, !tbaa !19
  %91 = getelementptr inbounds nuw %struct.dt_lib_tagging_t, ptr %90, i32 0, i32 29
  %92 = getelementptr inbounds nuw %struct.anon, ptr %91, i32 0, i32 5
  %93 = load i32, ptr %92, align 8, !tbaa !175
  %94 = getelementptr inbounds nuw %struct._cairo_rectangle_int, ptr %5, i32 0, i32 3
  %95 = load i32, ptr %94, align 4, !tbaa !205
  %96 = sub nsw i32 %95, 5
  %97 = icmp sgt i32 %93, %96
  br i1 %97, label %98, label %104

98:                                               ; preds = %89
  %99 = load ptr, ptr %4, align 8, !tbaa !19
  %100 = getelementptr inbounds nuw %struct.dt_lib_tagging_t, ptr %99, i32 0, i32 4
  %101 = load ptr, ptr %100, align 8, !tbaa !40
  %102 = load i32, ptr %6, align 4, !tbaa !31
  %103 = add nsw i32 %102, 25
  call void @gtk_tree_view_scroll_to_point(ptr noundef %101, i32 noundef 0, i32 noundef %103)
  br label %104

104:                                              ; preds = %98, %89
  br label %105

105:                                              ; preds = %104, %87
  store i32 1, ptr %2, align 4
  store i32 1, ptr %8, align 4
  call void @llvm.lifetime.end.p0(i64 4, ptr %6) #11
  call void @llvm.lifetime.end.p0(i64 16, ptr %5) #11
  br label %107

106:                                              ; preds = %1
  store i32 0, ptr %2, align 4
  store i32 1, ptr %8, align 4
  br label %107

107:                                              ; preds = %106, %105
  call void @llvm.lifetime.end.p0(i64 8, ptr %4) #11
  %108 = load i32, ptr %2, align 4
  ret i32 %108
}