; Function Attrs: nounwind uwtable
define internal range(i32 0, 2) i32 @_dnd_scroll_timeout(ptr noundef readonly captures(none) %0) #1 {
  %2 = alloca %struct._cairo_rectangle_int, align 4
  %3 = alloca i32, align 4
  %4 = alloca %struct._GtkTreeIter, align 8
  %5 = getelementptr inbounds nuw i8, ptr %0, i64 280
  %6 = load ptr, ptr %5, align 8, !tbaa !6
  %7 = getelementptr inbounds nuw i8, ptr %6, i64 1260
  %8 = load i32, ptr %7, align 4, !tbaa !104
  %.not = icmp eq i32 %8, 0
  br i1 %.not, label %51, label %9

9:                                                ; preds = %1
  call void @llvm.lifetime.start.p0(i64 16, ptr nonnull %2) #16
  %10 = getelementptr inbounds nuw i8, ptr %6, i64 1048
  %11 = load ptr, ptr %10, align 8, !tbaa !27
  call void @gtk_tree_view_get_visible_rect(ptr noundef %11, ptr noundef nonnull %2) #16
  call void @llvm.lifetime.start.p0(i64 4, ptr nonnull %3) #16
  %12 = load ptr, ptr %10, align 8, !tbaa !27
  call void @gtk_tree_view_convert_bin_window_to_tree_coords(ptr noundef %12, i32 noundef 0, i32 noundef 0, ptr noundef null, ptr noundef nonnull %3) #16
  %13 = getelementptr inbounds nuw i8, ptr %6, i64 1272
  %14 = load i32, ptr %13, align 8, !tbaa !107
  %.not19 = icmp eq i32 %14, 0
  %.phi.trans.insert = getelementptr inbounds nuw i8, ptr %6, i64 1268
  %.pre = load i32, ptr %.phi.trans.insert, align 4, !tbaa !106
  %15 = icmp eq i32 %.pre, 0
  br i1 %.not19, label %28, label %16

16:                                               ; preds = %9
  br i1 %15, label %17, label %.thread23

17:                                               ; preds = %16
  %18 = getelementptr inbounds nuw i8, ptr %6, i64 1264
  %19 = load i32, ptr %18, align 8, !tbaa !137
  %20 = icmp slt i32 %19, 5
  %21 = load i32, ptr %3, align 4
  %22 = icmp slt i32 %21, 1
  %or.cond = select i1 %20, i1 %22, i1 false
  br i1 %or.cond, label %23, label %.thread

23:                                               ; preds = %17
  call void @llvm.lifetime.start.p0(i64 32, ptr nonnull %4) #16
  %24 = getelementptr inbounds nuw i8, ptr %6, i64 1152
  %25 = load ptr, ptr %24, align 8, !tbaa !38
  call void @gtk_tree_store_prepend(ptr noundef %25, ptr noundef nonnull %4, ptr noundef null) #16
  %26 = load ptr, ptr %24, align 8, !tbaa !38
  %27 = call ptr @dcgettext(ptr noundef null, ptr noundef nonnull @.str.141, i32 noundef 5) #16
  call void (ptr, ptr, ...) @gtk_tree_store_set(ptr noundef %26, ptr noundef nonnull %4, i32 noundef 0, ptr noundef %27, i32 noundef 1, i32 noundef 0, i32 noundef 2, ptr noundef nonnull @.str.5, i32 noundef 4, i32 noundef 0, i32 noundef 5, i32 noundef 0, i32 noundef 6, i32 noundef 0, i32 noundef 7, i32 noundef 1, i32 noundef -1) #16
  store i32 1, ptr %.phi.trans.insert, align 4, !tbaa !106
  call void @llvm.lifetime.end.p0(i64 32, ptr nonnull %4) #16
  br label %.thread

28:                                               ; preds = %9
  br i1 %15, label %.thread, label %.thread23

.thread23:                                        ; preds = %16, %28
  %29 = getelementptr inbounds nuw i8, ptr %6, i64 1264
  %30 = load i32, ptr %29, align 8, !tbaa !137
  %31 = icmp sgt i32 %30, 19
  br i1 %31, label %32, label %.thread

32:                                               ; preds = %.thread23
  %.val = load ptr, ptr %5, align 8, !tbaa !6
  call fastcc void @_dnd_clear_root(ptr %.val)
  br label %.thread

.thread:                                          ; preds = %17, %28, %.thread23, %32, %23
  %33 = getelementptr inbounds nuw i8, ptr %6, i64 1264
  %34 = load i32, ptr %33, align 8, !tbaa !137
  %35 = icmp slt i32 %34, 5
  br i1 %35, label %36, label %41

36:                                               ; preds = %.thread
  %37 = load ptr, ptr %10, align 8, !tbaa !27
  %38 = load i32, ptr %3, align 4, !tbaa !46
  %39 = call i32 @llvm.smax.i32(i32 %38, i32 25)
  %40 = add nsw i32 %39, -25
  call void @gtk_tree_view_scroll_to_point(ptr noundef %37, i32 noundef 0, i32 noundef %40) #16
  br label %50

41:                                               ; preds = %.thread
  %42 = getelementptr inbounds nuw i8, ptr %2, i64 12
  %43 = load i32, ptr %42, align 4, !tbaa !160
  %44 = add nsw i32 %43, -5
  %45 = icmp sgt i32 %34, %44
  br i1 %45, label %46, label %50

46:                                               ; preds = %41
  %47 = load ptr, ptr %10, align 8, !tbaa !27
  %48 = load i32, ptr %3, align 4, !tbaa !46
  %49 = add nsw i32 %48, 25
  call void @gtk_tree_view_scroll_to_point(ptr noundef %47, i32 noundef 0, i32 noundef %49) #16
  br label %50

50:                                               ; preds = %41, %46, %36
  call void @llvm.lifetime.end.p0(i64 4, ptr nonnull %3) #16
  call void @llvm.lifetime.end.p0(i64 16, ptr nonnull %2) #16
  br label %51

51:                                               ; preds = %1, %50
  %.0 = phi i32 [ 1, %50 ], [ 0, %1 ]
  ret i32 %.0
}